; ModuleID = 'source-C-CXX/44/611.c'
source_filename = "source-C-CXX/44/611.c"
target datalayout = "e-m:e-p270:32:32-p271:32:32-p272:64:64-i64:64-f80:128-n8:16:32:64-S128"
target triple = "x86_64-pc-linux-gnu"

@.str = private unnamed_addr constant [6 x i8] c"%s %s\00", align 1
@.str.1 = private unnamed_addr constant [4 x i8] c"%d\0A\00", align 1

; Function Attrs: nofree nounwind sspstrong uwtable
define dso_local i32 @main() local_unnamed_addr #0 {
  %1 = alloca [26 x i8], align 16
  %2 = alloca [26 x i8], align 16
  %3 = getelementptr inbounds [26 x i8], [26 x i8]* %1, i64 0, i64 0
  call void @llvm.lifetime.start.p0i8(i64 26, i8* nonnull %3) #3
  %4 = getelementptr inbounds [26 x i8], [26 x i8]* %2, i64 0, i64 0
  call void @llvm.lifetime.start.p0i8(i64 26, i8* nonnull %4) #3
  %5 = call i32 (i8*, ...) @__isoc99_scanf(i8* getelementptr inbounds ([6 x i8], [6 x i8]* @.str, i64 0, i64 0), i8* nonnull %3, i8* nonnull %4)
  %6 = load i8, i8* %3, align 16
  %7 = getelementptr inbounds [26 x i8], [26 x i8]* %1, i64 0, i64 1
  %8 = load i8, i8* %7, align 1
  %9 = load i8, i8* %4, align 16, !tbaa !5
  %10 = icmp eq i8 %9, 0
  br i1 %10, label %50, label %11

11:                                               ; preds = %0
  %12 = icmp eq i8 %8, 0
  br i1 %12, label %13, label %22

13:                                               ; preds = %11, %17
  %14 = phi i64 [ %18, %17 ], [ 0, %11 ]
  %15 = phi i8 [ %20, %17 ], [ %9, %11 ]
  %16 = icmp eq i8 %6, %15
  br i1 %16, label %41, label %17

17:                                               ; preds = %13
  %18 = add nuw i64 %14, 1
  %19 = getelementptr inbounds [26 x i8], [26 x i8]* %2, i64 0, i64 %18
  %20 = load i8, i8* %19, align 1, !tbaa !5
  %21 = icmp eq i8 %20, 0
  br i1 %21, label %50, label %13, !llvm.loop !8

22:                                               ; preds = %11, %45
  %23 = phi i64 [ %46, %45 ], [ 0, %11 ]
  %24 = phi i8 [ %48, %45 ], [ %9, %11 ]
  %25 = icmp eq i8 %6, %24
  br i1 %25, label %26, label %45

26:                                               ; preds = %22, %26
  %27 = phi i64 [ %35, %26 ], [ 1, %22 ]
  %28 = phi i8 [ %37, %26 ], [ %8, %22 ]
  %29 = phi i32 [ %34, %26 ], [ 0, %22 ]
  %30 = add nuw nsw i64 %27, %23
  %31 = getelementptr inbounds [26 x i8], [26 x i8]* %2, i64 0, i64 %30
  %32 = load i8, i8* %31, align 1, !tbaa !5
  %33 = icmp eq i8 %28, %32
  %34 = select i1 %33, i32 %29, i32 1
  %35 = add nuw nsw i64 %27, 1
  %36 = getelementptr inbounds [26 x i8], [26 x i8]* %1, i64 0, i64 %35
  %37 = load i8, i8* %36, align 1, !tbaa !5
  %38 = icmp eq i8 %37, 0
  br i1 %38, label %39, label %26, !llvm.loop !10

39:                                               ; preds = %26
  %40 = icmp eq i32 %34, 0
  br i1 %40, label %41, label %45

41:                                               ; preds = %39, %13
  %42 = phi i64 [ %14, %13 ], [ %23, %39 ]
  %43 = trunc i64 %42 to i32
  %44 = call i32 (i8*, ...) @printf(i8* nonnull dereferenceable(1) getelementptr inbounds ([4 x i8], [4 x i8]* @.str.1, i64 0, i64 0), i32 %43)
  br label %50

45:                                               ; preds = %22, %39
  %46 = add nuw nsw i64 %23, 1
  %47 = getelementptr inbounds [26 x i8], [26 x i8]* %2, i64 0, i64 %46
  %48 = load i8, i8* %47, align 1, !tbaa !5
  %49 = icmp eq i8 %48, 0
  br i1 %49, label %50, label %22, !llvm.loop !8

50:                                               ; preds = %45, %17, %0, %41
  call void @llvm.lifetime.end.p0i8(i64 26, i8* nonnull %4) #3
  call void @llvm.lifetime.end.p0i8(i64 26, i8* nonnull %3) #3
  ret i32 0
}

; Function Attrs: argmemonly mustprogress nofree nosync nounwind willreturn
declare void @llvm.lifetime.start.p0i8(i64 immarg, i8* nocapture) #1

; Function Attrs: nofree nounwind
declare noundef i32 @__isoc99_scanf(i8* nocapture noundef readonly, ...) local_unnamed_addr #2

; Function Attrs: nofree nounwind
declare noundef i32 @printf(i8* nocapture noundef readonly, ...) local_unnamed_addr #2

; Function Attrs: argmemonly mustprogress nofree nosync nounwind willreturn
declare void @llvm.lifetime.end.p0i8(i64 immarg, i8* nocapture) #1


!llvm.module.flags = !{!0, !1, !2, !3}
!llvm.ident = !{!4}

!0 = !{i32 1, !"wchar_size", i32 4}
!1 = !{i32 7, !"PIC Level", i32 2}
!2 = !{i32 7, !"PIE Level", i32 2}
!3 = !{i32 7, !"uwtable", i32 1}
!4 = !{!"clang version 13.0.0"}
!5 = !{!6, !6, i64 0}
!6 = !{!"omnipotent char", !7, i64 0}
!7 = !{!"Simple C/C++ TBAA"}
!8 = distinct !{!8, !9}
!9 = !{!"llvm.loop.mustprogress"}
!10 = distinct !{!10, !9}
